; Function Attrs: mustprogress uwtable
define noundef zeroext i1 @_ZNK3g2o12VertexLine2D5writeERSo(ptr noundef nonnull readonly align 16 captures(none) dereferenceable(208) %0, ptr noundef nonnull align 8 dereferenceable(8) %1) unnamed_addr #4 align 2 personality ptr @__gxx_personality_v0 {
  %3 = getelementptr inbounds nuw i8, ptr %0, i64 160
  %4 = load double, ptr %3, align 16, !tbaa !52
  %5 = tail call noundef nonnull align 8 dereferenceable(8) ptr @_ZNSo9_M_insertIdEERSoT_(ptr noundef nonnull align 8 dereferenceable(8) %1, double noundef %4)
  %6 = tail call noundef nonnull align 8 dereferenceable(8) ptr @_ZSt16__ostream_insertIcSt11char_traitsIcEERSt13basic_ostreamIT_T0_ES6_PKS3_l(ptr noundef nonnull align 8 dereferenceable(8) %5, ptr noundef nonnull @.str, i64 noundef 1)
  %7 = getelementptr inbounds nuw i8, ptr %0, i64 168
  %8 = load double, ptr %7, align 8, !tbaa !52
  %9 = tail call noundef nonnull align 8 dereferenceable(8) ptr @_ZNSo9_M_insertIdEERSoT_(ptr noundef nonnull align 8 dereferenceable(8) %5, double noundef %8)
  %10 = tail call noundef nonnull align 8 dereferenceable(8) ptr @_ZSt16__ostream_insertIcSt11char_traitsIcEERSt13basic_ostreamIT_T0_ES6_PKS3_l(ptr noundef nonnull align 8 dereferenceable(8) %9, ptr noundef nonnull @.str, i64 noundef 1)
  %11 = getelementptr inbounds nuw i8, ptr %0, i64 200
  %12 = load i32, ptr %11, align 8, !tbaa !33
  %13 = tail call noundef nonnull align 8 dereferenceable(8) ptr @_ZNSolsEi(ptr noundef nonnull align 8 dereferenceable(8) %9, i32 noundef %12)
  %14 = tail call noundef nonnull align 8 dereferenceable(8) ptr @_ZSt16__ostream_insertIcSt11char_traitsIcEERSt13basic_ostreamIT_T0_ES6_PKS3_l(ptr noundef nonnull align 8 dereferenceable(8) %13, ptr noundef nonnull @.str, i64 noundef 1)
  %15 = getelementptr inbounds nuw i8, ptr %0, i64 204
  %16 = load i32, ptr %15, align 4, !tbaa !51
  %17 = tail call noundef nonnull align 8 dereferenceable(8) ptr @_ZNSolsEi(ptr noundef nonnull align 8 dereferenceable(8) %13, i32 noundef %16)
  %18 = load ptr, ptr %1, align 8, !tbaa !31
  %19 = getelementptr i8, ptr %18, i64 -24
  %20 = load i64, ptr %19, align 8
  %21 = getelementptr inbounds i8, ptr %1, i64 %20
  %22 = getelementptr inbounds nuw i8, ptr %21, i64 32
  %23 = load i32, ptr %22, align 8, !tbaa !54
  %24 = icmp eq i32 %23, 0
  ret i1 %24
}